target datalayout = "e-m:e-p270:32:32-p271:32:32-p272:64:64-i64:64-i128:128-f80:128-n8:16:32:64-S128"
target triple = "x86_64-pc-linux-gnu"

@libHandles = internal global [257 x ptr] zeroinitializer, align 16
@.str.10 = private unnamed_addr constant [8 x i8] c"abc_end\00", align 1
@.str.11 = private unnamed_addr constant [36 x i8] c"Warning: Failed to end library %d.\0A\00", align 1

; Function Attrs: nounwind uwtable
define ptr @get_fnct_ptr(i32 noundef %0, ptr noundef %1) #0 {
  %3 = alloca i32, align 4
  %4 = alloca ptr, align 8
  store i32 %0, ptr %3, align 4, !tbaa !3
  store ptr %1, ptr %4, align 8, !tbaa !7
  %5 = load i32, ptr %3, align 4, !tbaa !3
  %6 = sext i32 %5 to i64
  %7 = getelementptr inbounds [257 x ptr], ptr @libHandles, i64 0, i64 %6
  %8 = load ptr, ptr %7, align 8, !tbaa !15
  %9 = load ptr, ptr %4, align 8, !tbaa !7
  %10 = call ptr @dlsym(ptr noundef %8, ptr noundef %9) #6
  ret ptr %10
}

; Function Attrs: nounwind uwtable
define void @call_ends(ptr noundef %0) #0 {
  %2 = alloca ptr, align 8
  %3 = alloca i32, align 4
  %4 = alloca ptr, align 8
  store ptr %0, ptr %2, align 8, !tbaa !19
  call void @llvm.lifetime.start.p0(i64 4, ptr %3) #6
  call void @llvm.lifetime.start.p0(i64 8, ptr %4) #6
  store i32 0, ptr %3, align 4, !tbaa !3
  br label %5

5:                                                ; preds = %23, %1
  %6 = load i32, ptr %3, align 4, !tbaa !3
  %7 = sext i32 %6 to i64
  %8 = getelementptr inbounds [257 x ptr], ptr @libHandles, i64 0, i64 %7
  %9 = load ptr, ptr %8, align 8, !tbaa !15
  %10 = icmp ne ptr %9, null
  br i1 %10, label %11, label %26

11:                                               ; preds = %5
  %12 = load i32, ptr %3, align 4, !tbaa !3
  %13 = call ptr @get_fnct_ptr(i32 noundef %12, ptr noundef @.str.10)
  store ptr %13, ptr %4, align 8, !tbaa !15
  %14 = load ptr, ptr %4, align 8, !tbaa !15
  %15 = icmp eq ptr %14, null
  br i1 %15, label %16, label %19

16:                                               ; preds = %11
  %17 = load i32, ptr %3, align 4, !tbaa !3
  %18 = call i32 (ptr, ...) @printf(ptr noundef @.str.11, i32 noundef %17)
  br label %22

19:                                               ; preds = %11
  %20 = load ptr, ptr %4, align 8, !tbaa !15
  %21 = load ptr, ptr %2, align 8, !tbaa !19
  call void %20(ptr noundef %21)
  br label %22

22:                                               ; preds = %19, %16
  br label %23

23:                                               ; preds = %22
  %24 = load i32, ptr %3, align 4, !tbaa !3
  %25 = add nsw i32 %24, 1
  store i32 %25, ptr %3, align 4, !tbaa !3
  br label %5, !llvm.loop !22

26:                                               ; preds = %5
  call void @llvm.lifetime.end.p0(i64 8, ptr %4) #6
  call void @llvm.lifetime.end.p0(i64 4, ptr %3) #6
  ret void
}

; Function Attrs: nounwind uwtable
define void @Libs_End(ptr noundef %0) #0 {
  %2 = alloca ptr, align 8
  store ptr %0, ptr %2, align 8, !tbaa !19
  %3 = load ptr, ptr %2, align 8, !tbaa !19
  call void @call_ends(ptr noundef %3)
  ret void
}